target datalayout = "e-m:e-p270:32:32-p271:32:32-p272:64:64-i64:64-i128:128-f80:128-n8:16:32:64-S128"
target triple = "x86_64-pc-linux-gnu"

%union.pthread_mutex_t = type { %struct.__pthread_mutex_s }
%struct.__pthread_mutex_s = type { i32, i32, i32, i32, i32, i16, i16, %struct.__pthread_internal_list }
%struct.__pthread_internal_list = type { ptr, ptr }
%union.pthread_cond_t = type { %struct.__pthread_cond_s }
%struct.__pthread_cond_s = type { %union.__atomic_wide_counter, %union.__atomic_wide_counter, [2 x i32], [2 x i32], i32, i32, [2 x i32] }
%union.__atomic_wide_counter = type { i64 }
%struct.uv__work = type { ptr, ptr, ptr, [2 x ptr] }
%struct.uv_loop_s = type { ptr, i32, [2 x ptr], %union.anon, ptr, i32, i64, i32, [2 x ptr], [2 x ptr], ptr, i32, i32, [2 x ptr], %union.pthread_mutex_t, %struct.uv_async_s, %union.pthread_rwlock_t, ptr, [2 x ptr], [2 x ptr], [2 x ptr], [2 x ptr], [2 x ptr], ptr, %struct.uv__io_s, i32, %struct.anon.1, i64, i64, [2 x i32], %struct.uv__io_s, %struct.uv_signal_s, i32, %struct.uv__io_s, ptr, i32 }
%union.anon = type { ptr }
%struct.uv_async_s = type { ptr, ptr, i32, ptr, [2 x ptr], %union.anon.0, ptr, i32, ptr, [2 x ptr], i32 }
%union.anon.0 = type { [4 x ptr] }
%union.pthread_rwlock_t = type { %struct.__pthread_rwlock_arch_t }
%struct.__pthread_rwlock_arch_t = type { i32, i32, i32, i32, i32, i32, i32, i32, i8, [7 x i8], i64, i32 }
%struct.anon.1 = type { ptr, i32 }
%struct.uv_signal_s = type { ptr, ptr, i32, ptr, [2 x ptr], %union.anon.2, ptr, i32, ptr, i32, %struct.anon.3, i32, i32 }
%union.anon.2 = type { [4 x ptr] }
%struct.anon.3 = type { ptr, ptr, ptr, i32 }
%struct.uv__io_s = type { ptr, [2 x ptr], [2 x ptr], i32, i32, i32 }
%struct.uv_work_s = type { ptr, i32, [6 x ptr], ptr, ptr, ptr, %struct.uv__work }

@mutex = internal global %union.pthread_mutex_t zeroinitializer, align 8
@cond = internal global %union.pthread_cond_t zeroinitializer, align 8
@once = internal global i32 0, align 4
@slow_io_pending_wq = internal global [2 x ptr] zeroinitializer, align 16
@run_slow_work_message = internal global [2 x ptr] zeroinitializer, align 16
@wq = internal global [2 x ptr] zeroinitializer, align 16
@idle_threads = internal global i32 0, align 4

; Function Attrs: nounwind uwtable
define internal void @post(ptr noundef %0, i32 noundef %1) #0 {
  %3 = alloca ptr, align 8
  %4 = alloca i32, align 4
  store ptr %0, ptr %3, align 8, !tbaa !13
  store i32 %1, ptr %4, align 4, !tbaa !4
  call void @uv_mutex_lock(ptr noundef @mutex)
  %5 = load i32, ptr %4, align 4, !tbaa !4
  %6 = icmp eq i32 %5, 2
  br i1 %6, label %7, label %25

7:                                                ; preds = %2
  br label %8

8:                                                ; preds = %7
  %9 = load ptr, ptr %3, align 8, !tbaa !13
  %10 = getelementptr inbounds [2 x ptr], ptr %9, i64 0, i64 0
  store ptr @slow_io_pending_wq, ptr %10, align 8, !tbaa !13
  %11 = load ptr, ptr getelementptr inbounds ([2 x ptr], ptr @slow_io_pending_wq, i64 0, i64 1), align 8, !tbaa !13
  %12 = load ptr, ptr %3, align 8, !tbaa !13
  %13 = getelementptr inbounds [2 x ptr], ptr %12, i64 0, i64 1
  store ptr %11, ptr %13, align 8, !tbaa !13
  %14 = load ptr, ptr %3, align 8, !tbaa !13
  %15 = load ptr, ptr %3, align 8, !tbaa !13
  %16 = getelementptr inbounds [2 x ptr], ptr %15, i64 0, i64 1
  %17 = load ptr, ptr %16, align 8, !tbaa !13
  %18 = getelementptr inbounds [2 x ptr], ptr %17, i64 0, i64 0
  store ptr %14, ptr %18, align 8, !tbaa !13
  %19 = load ptr, ptr %3, align 8, !tbaa !13
  store ptr %19, ptr getelementptr inbounds ([2 x ptr], ptr @slow_io_pending_wq, i64 0, i64 1), align 8, !tbaa !13
  br label %20

20:                                               ; preds = %8
  %21 = load ptr, ptr @run_slow_work_message, align 16, !tbaa !13
  %22 = icmp eq ptr @run_slow_work_message, %21
  br i1 %22, label %24, label %23

23:                                               ; preds = %20
  call void @uv_mutex_unlock(ptr noundef @mutex)
  br label %43

24:                                               ; preds = %20
  store ptr @run_slow_work_message, ptr %3, align 8, !tbaa !13
  br label %25

25:                                               ; preds = %24, %2
  br label %26

26:                                               ; preds = %25
  %27 = load ptr, ptr %3, align 8, !tbaa !13
  %28 = getelementptr inbounds [2 x ptr], ptr %27, i64 0, i64 0
  store ptr @wq, ptr %28, align 8, !tbaa !13
  %29 = load ptr, ptr getelementptr inbounds ([2 x ptr], ptr @wq, i64 0, i64 1), align 8, !tbaa !13
  %30 = load ptr, ptr %3, align 8, !tbaa !13
  %31 = getelementptr inbounds [2 x ptr], ptr %30, i64 0, i64 1
  store ptr %29, ptr %31, align 8, !tbaa !13
  %32 = load ptr, ptr %3, align 8, !tbaa !13
  %33 = load ptr, ptr %3, align 8, !tbaa !13
  %34 = getelementptr inbounds [2 x ptr], ptr %33, i64 0, i64 1
  %35 = load ptr, ptr %34, align 8, !tbaa !13
  %36 = getelementptr inbounds [2 x ptr], ptr %35, i64 0, i64 0
  store ptr %32, ptr %36, align 8, !tbaa !13
  %37 = load ptr, ptr %3, align 8, !tbaa !13
  store ptr %37, ptr getelementptr inbounds ([2 x ptr], ptr @wq, i64 0, i64 1), align 8, !tbaa !13
  br label %38

38:                                               ; preds = %26
  %39 = load i32, ptr @idle_threads, align 4, !tbaa !4
  %40 = icmp ugt i32 %39, 0
  br i1 %40, label %41, label %42

41:                                               ; preds = %38
  call void @uv_cond_signal(ptr noundef @cond)
  br label %42

42:                                               ; preds = %41, %38
  call void @uv_mutex_unlock(ptr noundef @mutex)
  br label %43

43:                                               ; preds = %42, %23
  ret void
}

; Function Attrs: nounwind uwtable
define dso_local void @uv__work_submit(ptr noundef %0, ptr noundef %1, i32 noundef %2, ptr noundef %3, ptr noundef %4) #0 {
  %6 = alloca ptr, align 8
  %7 = alloca ptr, align 8
  %8 = alloca i32, align 4
  %9 = alloca ptr, align 8
  %10 = alloca ptr, align 8
  store ptr %0, ptr %6, align 8, !tbaa !14
  store ptr %1, ptr %7, align 8, !tbaa !16
  store i32 %2, ptr %8, align 4, !tbaa !4
  store ptr %3, ptr %9, align 8, !tbaa !13
  store ptr %4, ptr %10, align 8, !tbaa !13
  call void @uv_once(ptr noundef @once, ptr noundef @init_once)
  %11 = load ptr, ptr %6, align 8, !tbaa !14
  %12 = load ptr, ptr %7, align 8, !tbaa !16
  %13 = getelementptr inbounds nuw %struct.uv__work, ptr %12, i32 0, i32 2
  store ptr %11, ptr %13, align 8, !tbaa !18
  %14 = load ptr, ptr %9, align 8, !tbaa !13
  %15 = load ptr, ptr %7, align 8, !tbaa !16
  %16 = getelementptr inbounds nuw %struct.uv__work, ptr %15, i32 0, i32 0
  store ptr %14, ptr %16, align 8, !tbaa !20
  %17 = load ptr, ptr %10, align 8, !tbaa !13
  %18 = load ptr, ptr %7, align 8, !tbaa !16
  %19 = getelementptr inbounds nuw %struct.uv__work, ptr %18, i32 0, i32 1
  store ptr %17, ptr %19, align 8, !tbaa !21
  %20 = load ptr, ptr %7, align 8, !tbaa !16
  %21 = getelementptr inbounds nuw %struct.uv__work, ptr %20, i32 0, i32 3
  %22 = load i32, ptr %8, align 4, !tbaa !4
  call void @post(ptr noundef %21, i32 noundef %22)
  ret void
}

; Function Attrs: nounwind uwtable
define dso_local i32 @uv_queue_work(ptr noundef %0, ptr noundef %1, ptr noundef %2, ptr noundef %3) #0 {
  %5 = alloca i32, align 4
  %6 = alloca ptr, align 8
  %7 = alloca ptr, align 8
  %8 = alloca ptr, align 8
  %9 = alloca ptr, align 8
  store ptr %0, ptr %6, align 8, !tbaa !14
  store ptr %1, ptr %7, align 8, !tbaa !25
  store ptr %2, ptr %8, align 8, !tbaa !13
  store ptr %3, ptr %9, align 8, !tbaa !13
  %10 = load ptr, ptr %8, align 8, !tbaa !13
  %11 = icmp eq ptr %10, null
  br i1 %11, label %12, label %13

12:                                               ; preds = %4
  store i32 -22, ptr %5, align 4
  br label %38

13:                                               ; preds = %4
  br label %14

14:                                               ; preds = %13
  br label %15

15:                                               ; preds = %14
  %16 = load ptr, ptr %7, align 8, !tbaa !25
  %17 = getelementptr inbounds nuw %struct.uv_work_s, ptr %16, i32 0, i32 1
  store i32 7, ptr %17, align 8, !tbaa !27
  br label %18

18:                                               ; preds = %15
  br label %19

19:                                               ; preds = %18
  %20 = load ptr, ptr %6, align 8, !tbaa !14
  %21 = getelementptr inbounds nuw %struct.uv_loop_s, ptr %20, i32 0, i32 3
  %22 = load i32, ptr %21, align 8, !tbaa !29
  %23 = add i32 %22, 1
  store i32 %23, ptr %21, align 8, !tbaa !29
  br label %24

24:                                               ; preds = %19
  br label %25

25:                                               ; preds = %24
  %26 = load ptr, ptr %6, align 8, !tbaa !14
  %27 = load ptr, ptr %7, align 8, !tbaa !25
  %28 = getelementptr inbounds nuw %struct.uv_work_s, ptr %27, i32 0, i32 3
  store ptr %26, ptr %28, align 8, !tbaa !30
  %29 = load ptr, ptr %8, align 8, !tbaa !13
  %30 = load ptr, ptr %7, align 8, !tbaa !25
  %31 = getelementptr inbounds nuw %struct.uv_work_s, ptr %30, i32 0, i32 4
  store ptr %29, ptr %31, align 8, !tbaa !31
  %32 = load ptr, ptr %9, align 8, !tbaa !13
  %33 = load ptr, ptr %7, align 8, !tbaa !25
  %34 = getelementptr inbounds nuw %struct.uv_work_s, ptr %33, i32 0, i32 5
  store ptr %32, ptr %34, align 8, !tbaa !32
  %35 = load ptr, ptr %6, align 8, !tbaa !14
  %36 = load ptr, ptr %7, align 8, !tbaa !25
  %37 = getelementptr inbounds nuw %struct.uv_work_s, ptr %36, i32 0, i32 6
  call void @uv__work_submit(ptr noundef %35, ptr noundef %37, i32 noundef 0, ptr noundef @uv__queue_work, ptr noundef @uv__queue_done)
  store i32 0, ptr %5, align 4
  br label %38

38:                                               ; preds = %25, %12
  %39 = load i32, ptr %5, align 4
  ret i32 %39
}