; Function Attrs: nounwind uwtable
define dso_local range(i32 -22, 1) i32 @uv_queue_work(ptr noundef %0, ptr noundef %1, ptr noundef %2, ptr noundef %3) local_unnamed_addr #0 {
  %5 = icmp eq ptr %2, null
  br i1 %5, label %22, label %6

6:                                                ; preds = %4
  %7 = getelementptr inbounds nuw i8, ptr %1, i64 8
  store i32 7, ptr %7, align 8, !tbaa !22
  %8 = getelementptr inbounds nuw i8, ptr %0, i64 32
  %9 = load i32, ptr %8, align 8, !tbaa !24
  %10 = add i32 %9, 1
  store i32 %10, ptr %8, align 8, !tbaa !24
  %11 = getelementptr inbounds nuw i8, ptr %1, i64 64
  store ptr %0, ptr %11, align 8, !tbaa !25
  %12 = getelementptr inbounds nuw i8, ptr %1, i64 72
  store ptr %2, ptr %12, align 8, !tbaa !26
  %13 = getelementptr inbounds nuw i8, ptr %1, i64 80
  store ptr %3, ptr %13, align 8, !tbaa !27
  %14 = getelementptr inbounds nuw i8, ptr %1, i64 88
  tail call void @uv_once(ptr noundef nonnull @once, ptr noundef nonnull @init_once) #9
  %15 = getelementptr inbounds nuw i8, ptr %1, i64 104
  store ptr %0, ptr %15, align 8, !tbaa !14
  store ptr @uv__queue_work, ptr %14, align 8, !tbaa !17
  %16 = getelementptr inbounds nuw i8, ptr %1, i64 96
  store ptr @uv__queue_done, ptr %16, align 8, !tbaa !18
  %17 = getelementptr inbounds nuw i8, ptr %1, i64 112
  tail call void @uv_mutex_lock(ptr noundef nonnull @mutex) #9
  store ptr @wq, ptr %17, align 8, !tbaa !8
  %18 = load ptr, ptr getelementptr inbounds nuw (i8, ptr @wq, i64 8), align 8, !tbaa !8
  %19 = getelementptr inbounds nuw i8, ptr %1, i64 120
  store ptr %18, ptr %19, align 8, !tbaa !8
  store ptr %17, ptr %18, align 8, !tbaa !8
  store ptr %17, ptr getelementptr inbounds nuw (i8, ptr @wq, i64 8), align 8, !tbaa !8
  %20 = load i32, ptr @idle_threads, align 4, !tbaa !4
  %.not.i.i = icmp eq i32 %20, 0
  br i1 %.not.i.i, label %uv__work_submit.exit, label %21

21:                                               ; preds = %6
  tail call void @uv_cond_signal(ptr noundef nonnull @cond) #9
  br label %uv__work_submit.exit

uv__work_submit.exit:                             ; preds = %6, %21
  tail call void @uv_mutex_unlock(ptr noundef nonnull @mutex) #9
  br label %22

22:                                               ; preds = %4, %uv__work_submit.exit
  %.0 = phi i32 [ 0, %uv__work_submit.exit ], [ -22, %4 ]
  ret i32 %.0
}